(dp0
S'Thursday'
p1
(dp2
S'D'
p3
(lp4
ssS'Tuesday'
p5
(dp6
S'B'
p7
(lp8
ssS'Friday'
p9
(dp10
S'E'
p11
(lp12
ssS'Wednesday'
p13
(dp14
S'C'
p15
(lp16
ssS'Monday'
p17
(dp18
S'A'
p19
(lp20
(lp21
S'10AM'
p22
aS'11AM'
p23
aS'SFAESFSEF'
p24
aa(lp25
g23
aS'12PM'
p26
aS'AAAA'
p27
aass.
