(dp0
S'Friday'
p1
(dp2
S'H'
p3
(lp4
(lp5
S'8:00AM'
p6
aS'9:00AM'
p7
aS'DATA STRUCTURE'
p8
aa(lp9
g7
aS'10:00AM'
p10
aS'PHYSICS'
p11
aa(lp12
g10
aS'11:00AM'
p13
aS'BASIC ELECTRICAL'
p14
aa(lp15
g13
aS'12:00PM'
p16
aS'OFF'
p17
aa(lp18
g16
aS'1:15PM'
p19
aS'LUNCH BREAK'
p20
aa(lp21
g19
aS'2:15PM'
p22
aS'PHYSICS LAB'
p23
aa(lp24
g22
aS'3:15PM'
p25
aS'PHYSICS LAB'
p26
aa(lp27
g25
aS'4:15PM'
p28
aS'PHYSICS LAB'
p29
aa(lp30
g28
aS'5:15PM'
p31
aS'MATHS'
p32
aassS'Tuesday'
p33
(dp34
g3
(lp35
(lp36
g6
ag7
aS'BASIC ELECTRICAL'
p37
aa(lp38
g7
ag10
aS'ENGINEERING MECHANICS'
p39
aa(lp40
g10
ag13
aS'DATA STRUCTURE'
p41
aa(lp42
g13
ag16
aS'OFF'
p43
aa(lp44
g16
ag19
aS'LUNCH BREAK'
p45
aa(lp46
g19
ag22
aS'Workshop'
p47
aa(lp48
g22
ag25
aS'Workshop'
p49
aa(lp50
g25
ag28
aS'Workshop'
p51
aa(lp52
g28
ag31
aS'MATHS'
p53
aassS'Thursday'
p54
(dp55
g3
(lp56
(lp57
g6
ag7
aS'ENGINEERING MECHANICS'
p58
aa(lp59
g7
ag10
aS'DATA STRUCTURE'
p60
aa(lp61
g10
ag13
aS'PHYSICS'
p62
aa(lp63
g13
ag16
aS'OFF'
p64
aa(lp65
g16
ag19
aS'LUNCH BREAK'
p66
aa(lp67
g19
ag22
aS'OFF'
p68
aa(lp69
g22
ag25
aS'OF'
p70
aa(lp71
g25
ag28
aS'OFF'
p72
aa(lp73
g28
ag31
aS'MATHS'
p74
aassS'Wednesday'
p75
(dp76
g3
(lp77
(lp78
g6
ag7
aS'OFF'
p79
aa(lp80
g7
ag10
aS'LANGUAGE LAB'
p81
aa(lp82
g10
ag13
aS'LANGUAGE LAB'
p83
aa(lp84
g13
ag16
aS'LANGUAGE LAB'
p85
aa(lp86
g16
ag19
aS'LUNCH BREAK'
p87
aa(lp88
g19
ag22
aS'DATA STRUCTURE'
p89
aa(lp90
g22
ag25
aS'PHYSICS TUTORIAL'
p91
aa(lp92
g25
ag28
aS'BASIC ELECTRICAL TUTORIAL'
p93
aa(lp94
g28
ag31
aS'MECHANICS TUTORIAL'
p95
aassS'Monday'
p96
(dp97
g3
(lp98
(lp99
g6
ag7
aS'PHYSICS'
p100
aa(lp101
g7
ag10
aS'BASIC ELECTRICAL'
p102
aa(lp103
g10
ag13
aS'ENGINEERING MECHANICS'
p104
aa(lp105
g13
ag16
aS'OFF'
p106
aa(lp107
g16
ag19
aS'LUNCH BREAK'
p108
aa(lp109
g19
ag22
aS'Machine Drawing'
p110
aa(lp111
g22
ag25
aS'Machine Drawing'
p112
aa(lp113
g25
ag28
aS'Machine Drawing'
p114
aa(lp115
g28
ag31
aS'MATHS'
p116
aass.
